target datalayout = "e-m:e-p270:32:32-p271:32:32-p272:64:64-i64:64-i128:128-f80:128-n8:16:32:64-S128"
target triple = "x86_64-pc-linux-gnu"

%struct.ident_t = type { i32, i32, i32, i32, ptr }
%"struct.std::_Vector_base.4" = type { %"struct.std::_Vector_base<long, std::allocator<long>>::_Vector_impl" }
%"struct.std::_Vector_base<long, std::allocator<long>>::_Vector_impl" = type { %"struct.std::_Vector_base<long, std::allocator<long>>::_Vector_impl_data" }
%"struct.std::_Vector_base<long, std::allocator<long>>::_Vector_impl_data" = type { ptr, ptr, ptr }
%"struct.std::_Vector_base.9" = type { %"struct.std::_Vector_base<unsigned long, std::allocator<unsigned long>>::_Vector_impl" }
%"struct.std::_Vector_base<unsigned long, std::allocator<unsigned long>>::_Vector_impl" = type { %"struct.std::_Vector_base<unsigned long, std::allocator<unsigned long>>::_Vector_impl_data" }
%"struct.std::_Vector_base<unsigned long, std::allocator<unsigned long>>::_Vector_impl_data" = type { ptr, ptr, ptr }

@2 = private unnamed_addr constant %struct.ident_t { i32 0, i32 514, i32 0, i32 22, ptr @0 }, align 8
@_ZN5faiss12_GLOBAL__N_18bigprimeE = internal global i64 8955327411143, align 8

; Function Attrs: noreturn nounwind uwtable
define linkonce_odr hidden void @__clang_call_terminate(ptr noundef %0) #8 comdat {
  %2 = call ptr @__cxa_begin_catch(ptr %0) #7
  call void @_ZSt9terminatev() #17
  unreachable
}

; Function Attrs: mustprogress nounwind uwtable
define linkonce_odr noundef nonnull align 8 dereferenceable(8) ptr @_ZNSt6vectorImSaImEEixEm(ptr noundef nonnull align 8 dereferenceable(24) %0, i64 noundef %1) #2 comdat align 2 {
  %3 = alloca ptr, align 8
  %4 = alloca i64, align 8
  store ptr %0, ptr %3, align 8
  store i64 %1, ptr %4, align 8
  %5 = load ptr, ptr %3, align 8
  %6 = getelementptr inbounds %"struct.std::_Vector_base.9", ptr %5, i32 0, i32 0
  %7 = getelementptr inbounds %"struct.std::_Vector_base<unsigned long, std::allocator<unsigned long>>::_Vector_impl_data", ptr %6, i32 0, i32 0
  %8 = load ptr, ptr %7, align 8
  %9 = load i64, ptr %4, align 8
  %10 = getelementptr inbounds i64, ptr %8, i64 %9
  ret ptr %10
}

; Function Attrs: mustprogress nounwind uwtable
define linkonce_odr noundef nonnull align 8 dereferenceable(8) ptr @_ZNSt6vectorIlSaIlEEixEm(ptr noundef nonnull align 8 dereferenceable(24) %0, i64 noundef %1) #2 comdat align 2 {
  %3 = alloca ptr, align 8
  %4 = alloca i64, align 8
  store ptr %0, ptr %3, align 8
  store i64 %1, ptr %4, align 8
  %5 = load ptr, ptr %3, align 8
  %6 = getelementptr inbounds %"struct.std::_Vector_base.4", ptr %5, i32 0, i32 0
  %7 = getelementptr inbounds %"struct.std::_Vector_base<long, std::allocator<long>>::_Vector_impl_data", ptr %6, i32 0, i32 0
  %8 = load ptr, ptr %7, align 8
  %9 = load i64, ptr %4, align 8
  %10 = getelementptr inbounds i64, ptr %8, i64 %9
  ret ptr %10
}

; Function Attrs: mustprogress nounwind uwtable
define internal noundef i64 @_ZN5faiss12_GLOBAL__N_113hash_functionEl(i64 noundef %0) #2 {
  %2 = alloca i64, align 8
  store i64 %0, ptr %2, align 8
  %3 = load i64, ptr %2, align 8
  %4 = mul nsw i64 %3, 1000003
  %5 = load i64, ptr @_ZN5faiss12_GLOBAL__N_18bigprimeE, align 8
  %6 = srem i64 %4, %5
  ret i64 %6
}

; Function Attrs: norecurse nounwind uwtable
define internal void @_ZN5faiss28hashtable_int64_to_int64_addEiPlmPKlS2_.omp_outlined(ptr noalias noundef %0, ptr noalias noundef %1, ptr noundef nonnull align 8 dereferenceable(8) %2, ptr noundef nonnull align 8 dereferenceable(24) %3, ptr noundef nonnull align 8 dereferenceable(8) %4, ptr noundef nonnull align 8 dereferenceable(8) %5, ptr noundef nonnull align 8 dereferenceable(24) %6, ptr noundef nonnull align 4 dereferenceable(4) %7, ptr noundef nonnull align 4 dereferenceable(4) %8) #6 personality ptr @__gxx_personality_v0 {
  %10 = alloca ptr, align 8
  %11 = alloca ptr, align 8
  %12 = alloca ptr, align 8
  %13 = alloca ptr, align 8
  %14 = alloca ptr, align 8
  %15 = alloca ptr, align 8
  %16 = alloca ptr, align 8
  %17 = alloca ptr, align 8
  %18 = alloca ptr, align 8
  %19 = alloca i64, align 8
  %20 = alloca i64, align 8
  %21 = alloca i64, align 8
  %22 = alloca i64, align 8
  %23 = alloca i64, align 8
  %24 = alloca i64, align 8
  %25 = alloca i64, align 8
  %26 = alloca i32, align 4
  %27 = alloca i64, align 8
  store ptr %0, ptr %10, align 8
  store ptr %1, ptr %11, align 8
  store ptr %2, ptr %12, align 8
  store ptr %3, ptr %13, align 8
  store ptr %4, ptr %14, align 8
  store ptr %5, ptr %15, align 8
  store ptr %6, ptr %16, align 8
  store ptr %7, ptr %17, align 8
  store ptr %8, ptr %18, align 8
  %28 = load ptr, ptr %12, align 8
  %29 = load ptr, ptr %13, align 8
  %30 = load ptr, ptr %14, align 8
  %31 = load ptr, ptr %15, align 8
  %32 = load ptr, ptr %16, align 8
  %33 = load ptr, ptr %17, align 8
  %34 = load ptr, ptr %18, align 8
  %35 = load i64, ptr %28, align 8
  store i64 %35, ptr %20, align 8
  %36 = load i64, ptr %20, align 8
  %37 = sub i64 %36, 0
  %38 = udiv i64 %37, 1
  %39 = sub i64 %38, 1
  store i64 %39, ptr %21, align 8
  store i64 0, ptr %22, align 8
  %40 = load i64, ptr %20, align 8
  %41 = icmp ult i64 0, %40
  br i1 %41, label %42, label %93

42:                                               ; preds = %9
  store i64 0, ptr %23, align 8
  %43 = load i64, ptr %21, align 8
  store i64 %43, ptr %24, align 8
  store i64 1, ptr %25, align 8
  store i32 0, ptr %26, align 4
  %44 = load ptr, ptr %10, align 8
  %45 = load i32, ptr %44, align 4
  call void @__kmpc_for_static_init_8u(ptr @2, i32 %45, i32 34, ptr %26, ptr %23, ptr %24, ptr %25, i64 1, i64 1)
  %46 = load i64, ptr %24, align 8
  %47 = load i64, ptr %21, align 8
  %48 = icmp ugt i64 %46, %47
  br i1 %48, label %49, label %51

49:                                               ; preds = %42
  %50 = load i64, ptr %21, align 8
  br label %53

51:                                               ; preds = %42
  %52 = load i64, ptr %24, align 8
  br label %53

53:                                               ; preds = %51, %49
  %54 = phi i64 [ %50, %49 ], [ %52, %51 ]
  store i64 %54, ptr %24, align 8
  %55 = load i64, ptr %23, align 8
  store i64 %55, ptr %19, align 8
  br label %56

56:                                               ; preds = %86, %53
  %57 = load i64, ptr %19, align 8
  %58 = load i64, ptr %24, align 8
  %59 = add i64 %58, 1
  %60 = icmp ult i64 %57, %59
  br i1 %60, label %61, label %89

61:                                               ; preds = %56
  %62 = load i64, ptr %19, align 8
  %63 = mul i64 %62, 1
  %64 = add i64 0, %63
  store i64 %64, ptr %27, align 8
  %65 = load ptr, ptr %30, align 8
  %66 = load i64, ptr %27, align 8
  %67 = getelementptr inbounds i64, ptr %65, i64 %66
  %68 = load i64, ptr %67, align 8
  %69 = invoke noundef i64 @_ZN5faiss12_GLOBAL__N_113hash_functionEl(i64 noundef %68)
          to label %70 unwind label %94

70:                                               ; preds = %61
  %71 = load i64, ptr %31, align 8
  %72 = and i64 %69, %71
  %73 = load i64, ptr %27, align 8
  %74 = call noundef nonnull align 8 dereferenceable(8) ptr @_ZNSt6vectorIlSaIlEEixEm(ptr noundef nonnull align 8 dereferenceable(24) %29, i64 noundef %73) #7
  store i64 %72, ptr %74, align 8
  %75 = load i64, ptr %27, align 8
  %76 = call noundef nonnull align 8 dereferenceable(8) ptr @_ZNSt6vectorIlSaIlEEixEm(ptr noundef nonnull align 8 dereferenceable(24) %29, i64 noundef %75) #7
  %77 = load i64, ptr %76, align 8
  %78 = load i32, ptr %33, align 4
  %79 = load i32, ptr %34, align 4
  %80 = sub nsw i32 %78, %79
  %81 = zext i32 %80 to i64
  %82 = ashr i64 %77, %81
  %83 = load i64, ptr %27, align 8
  %84 = call noundef nonnull align 8 dereferenceable(8) ptr @_ZNSt6vectorImSaImEEixEm(ptr noundef nonnull align 8 dereferenceable(24) %32, i64 noundef %83) #7
  store i64 %82, ptr %84, align 8
  br label %85

85:                                               ; preds = %70
  br label %86

86:                                               ; preds = %85
  %87 = load i64, ptr %19, align 8
  %88 = add i64 %87, 1
  store i64 %88, ptr %19, align 8
  br label %56

89:                                               ; preds = %56
  br label %90

90:                                               ; preds = %89
  %91 = load ptr, ptr %10, align 8
  %92 = load i32, ptr %91, align 4
  call void @__kmpc_for_static_fini(ptr @2, i32 %92)
  br label %93

93:                                               ; preds = %90, %9
  ret void

94:                                               ; preds = %61
  %95 = landingpad { ptr, i32 }
          catch ptr null
  %96 = extractvalue { ptr, i32 } %95, 0
  call void @__clang_call_terminate(ptr %96) #17
  unreachable
}