; Function Attrs: norecurse nounwind uwtable
define internal void @_ZN5faiss28hashtable_int64_to_int64_addEiPlmPKlS2_.omp_outlined(ptr noalias nocapture noundef readonly %0, ptr noalias nocapture readnone %1, ptr nocapture noundef nonnull readonly align 8 dereferenceable(8) %2, ptr nocapture noundef nonnull readonly align 8 dereferenceable(24) %3, ptr nocapture noundef nonnull readonly align 8 dereferenceable(8) %4, ptr nocapture noundef nonnull readonly align 8 dereferenceable(8) %5, ptr nocapture noundef nonnull readonly align 8 dereferenceable(24) %6, ptr nocapture noundef nonnull readonly align 4 dereferenceable(4) %7, ptr nocapture noundef nonnull readonly align 4 dereferenceable(4) %8) #8 personality ptr @__gxx_personality_v0 {
  %10 = alloca i64, align 8
  %11 = alloca i64, align 8
  %12 = alloca i64, align 8
  %13 = alloca i32, align 4
  %14 = load i64, ptr %2, align 8
  %.not = icmp eq i64 %14, 0
  br i1 %.not, label %44, label %15

15:                                               ; preds = %9
  %16 = add i64 %14, -1
  store i64 0, ptr %10, align 8
  store i64 %16, ptr %11, align 8
  store i64 1, ptr %12, align 8
  store i32 0, ptr %13, align 4
  %17 = load i32, ptr %0, align 4
  call void @__kmpc_for_static_init_8u(ptr nonnull @2, i32 %17, i32 34, ptr nonnull %13, ptr nonnull %10, ptr nonnull %11, ptr nonnull %12, i64 1, i64 1)
  %18 = load i64, ptr %11, align 8
  %19 = call i64 @llvm.umin.i64(i64 %18, i64 %16)
  store i64 %19, ptr %11, align 8
  %20 = load i64, ptr %10, align 8
  %.not21 = icmp ugt i64 %20, %19
  br i1 %.not21, label %._crit_edge, label %.lr.ph

.lr.ph:                                           ; preds = %15, %.lr.ph
  %.020 = phi i64 [ %40, %.lr.ph ], [ %20, %15 ]
  %21 = load ptr, ptr %4, align 8
  %22 = getelementptr inbounds i64, ptr %21, i64 %.020
  %23 = load i64, ptr %22, align 8
  %24 = mul nsw i64 %23, 1000003
  %25 = srem i64 %24, 8955327411143
  %26 = load i64, ptr %5, align 8
  %27 = and i64 %25, %26
  %28 = load ptr, ptr %3, align 8
  %29 = getelementptr inbounds i64, ptr %28, i64 %.020
  store i64 %27, ptr %29, align 8
  %30 = load ptr, ptr %3, align 8
  %31 = getelementptr inbounds i64, ptr %30, i64 %.020
  %32 = load i64, ptr %31, align 8
  %33 = load i32, ptr %7, align 4
  %34 = load i32, ptr %8, align 4
  %35 = sub nsw i32 %33, %34
  %36 = zext nneg i32 %35 to i64
  %37 = ashr i64 %32, %36
  %38 = load ptr, ptr %6, align 8
  %39 = getelementptr inbounds i64, ptr %38, i64 %.020
  store i64 %37, ptr %39, align 8
  %40 = add nuw i64 %.020, 1
  %41 = load i64, ptr %11, align 8
  %42 = add i64 %41, 1
  %43 = icmp ult i64 %40, %42
  br i1 %43, label %.lr.ph, label %._crit_edge

._crit_edge:                                      ; preds = %.lr.ph, %15
  call void @__kmpc_for_static_fini(ptr nonnull @2, i32 %17)
  br label %44

44:                                               ; preds = %._crit_edge, %9
  ret void
}